target datalayout = "e-m:e-p270:32:32-p271:32:32-p272:64:64-i64:64-i128:128-f80:128-n8:16:32:64-S128"
target triple = "x86_64-unknown-linux-gnu"

%"class.llvh::FoldingSetBase" = type { ptr, ptr, i32, i32 }

@_ZTVN4llvh14FoldingSetBaseE = hidden unnamed_addr constant { [6 x ptr] } { [6 x ptr] [ptr null, ptr null, ptr @_ZN4llvh14FoldingSetBase6anchorEv, ptr @__cxa_pure_virtual, ptr @__cxa_pure_virtual, ptr @__cxa_pure_virtual] }, align 8

; Function Attrs: mustprogress nounwind uwtable
define hidden void @_ZN4llvh14FoldingSetBaseC2EOS0_(ptr noundef nonnull align 8 dereferenceable(24) %this, ptr noundef nonnull align 8 dereferenceable(24) %Arg) unnamed_addr #0 align 2 {
entry:
  %this.addr = alloca ptr, align 8
  %Arg.addr = alloca ptr, align 8
  store ptr %this, ptr %this.addr, align 8
  store ptr %Arg, ptr %Arg.addr, align 8
  %this1 = load ptr, ptr %this.addr, align 8
  store ptr getelementptr inbounds ({ [6 x ptr] }, ptr @_ZTVN4llvh14FoldingSetBaseE, i32 0, i32 0, i32 2), ptr %this1, align 8
  %Buckets = getelementptr inbounds %"class.llvh::FoldingSetBase", ptr %this1, i32 0, i32 1
  %0 = load ptr, ptr %Arg.addr, align 8
  %Buckets2 = getelementptr inbounds %"class.llvh::FoldingSetBase", ptr %0, i32 0, i32 1
  %1 = load ptr, ptr %Buckets2, align 8
  store ptr %1, ptr %Buckets, align 8
  %NumBuckets = getelementptr inbounds %"class.llvh::FoldingSetBase", ptr %this1, i32 0, i32 2
  %2 = load ptr, ptr %Arg.addr, align 8
  %NumBuckets3 = getelementptr inbounds %"class.llvh::FoldingSetBase", ptr %2, i32 0, i32 2
  %3 = load i32, ptr %NumBuckets3, align 8
  store i32 %3, ptr %NumBuckets, align 8
  %NumNodes = getelementptr inbounds %"class.llvh::FoldingSetBase", ptr %this1, i32 0, i32 3
  %4 = load ptr, ptr %Arg.addr, align 8
  %NumNodes4 = getelementptr inbounds %"class.llvh::FoldingSetBase", ptr %4, i32 0, i32 3
  %5 = load i32, ptr %NumNodes4, align 4
  store i32 %5, ptr %NumNodes, align 4
  %6 = load ptr, ptr %Arg.addr, align 8
  %Buckets5 = getelementptr inbounds %"class.llvh::FoldingSetBase", ptr %6, i32 0, i32 1
  store ptr null, ptr %Buckets5, align 8
  %7 = load ptr, ptr %Arg.addr, align 8
  %NumBuckets6 = getelementptr inbounds %"class.llvh::FoldingSetBase", ptr %7, i32 0, i32 2
  store i32 0, ptr %NumBuckets6, align 8
  %8 = load ptr, ptr %Arg.addr, align 8
  %NumNodes7 = getelementptr inbounds %"class.llvh::FoldingSetBase", ptr %8, i32 0, i32 3
  store i32 0, ptr %NumNodes7, align 4
  ret void
}