; Function Attrs: mustprogress nofree norecurse nosync nounwind willreturn memory(argmem: readwrite) uwtable
define hidden void @_ZN4llvh14FoldingSetBaseC2EOS0_(ptr nocapture noundef nonnull writeonly align 8 dereferenceable(24) %this, ptr nocapture noundef nonnull align 8 dereferenceable(24) %Arg) unnamed_addr #5 align 2 {
entry:
  store ptr getelementptr inbounds ({ [6 x ptr] }, ptr @_ZTVN4llvh14FoldingSetBaseE, i64 0, i32 0, i64 2), ptr %this, align 8
  %Buckets = getelementptr inbounds i8, ptr %this, i64 8
  %Buckets2 = getelementptr inbounds i8, ptr %Arg, i64 8
  %0 = load ptr, ptr %Buckets2, align 8
  store ptr %0, ptr %Buckets, align 8
  %NumBuckets = getelementptr inbounds i8, ptr %this, i64 16
  %NumBuckets3 = getelementptr inbounds i8, ptr %Arg, i64 16
  %1 = load i32, ptr %NumBuckets3, align 8
  store i32 %1, ptr %NumBuckets, align 8
  %NumNodes = getelementptr inbounds i8, ptr %this, i64 20
  %NumNodes4 = getelementptr inbounds i8, ptr %Arg, i64 20
  %2 = load i32, ptr %NumNodes4, align 4
  store i32 %2, ptr %NumNodes, align 4
  tail call void @llvm.memset.p0.i64(ptr noundef nonnull align 8 dereferenceable(16) %Buckets2, i8 0, i64 16, i1 false)
  ret void
}